; Function Attrs: mustprogress sspstrong uwtable
define internal noundef ptr @_ZL10py_an_loadP8py_annoyP7_objectS2_(ptr noundef readonly captures(none) %0, ptr noundef %1, ptr noundef %2) #2 {
  %4 = alloca ptr, align 8
  %5 = alloca ptr, align 8
  %6 = alloca i8, align 1
  call void @llvm.lifetime.start.p0(i64 8, ptr nonnull %4) #33
  call void @llvm.lifetime.start.p0(i64 8, ptr nonnull %5) #33
  call void @llvm.lifetime.start.p0(i64 1, ptr nonnull %6) #33
  store i8 0, ptr %6, align 1, !tbaa !97
  %7 = getelementptr inbounds nuw i8, ptr %0, i64 24
  %8 = load ptr, ptr %7, align 8, !tbaa !25
  %.not = icmp eq ptr %8, null
  br i1 %.not, label %27, label %9

9:                                                ; preds = %3
  %10 = call i32 (ptr, ptr, ptr, ptr, ...) @PyArg_ParseTupleAndKeywords(ptr noundef %1, ptr noundef %2, ptr noundef nonnull @.str.38, ptr noundef nonnull @_ZZL10py_an_loadP8py_annoyP7_objectS2_E6kwlist, ptr noundef nonnull %4, ptr noundef nonnull %6)
  %.not5 = icmp eq i32 %10, 0
  br i1 %.not5, label %27, label %11

11:                                               ; preds = %9
  %12 = load ptr, ptr %7, align 8, !tbaa !25
  %13 = load ptr, ptr %4, align 8, !tbaa !41
  %14 = load i8, ptr %6, align 1, !tbaa !97, !range !98, !noundef !99
  %15 = trunc nuw i8 %14 to i1
  %16 = load ptr, ptr %12, align 8, !tbaa !28
  %17 = getelementptr inbounds nuw i8, ptr %16, i64 56
  %18 = load ptr, ptr %17, align 8
  %19 = call noundef zeroext i1 %18(ptr noundef nonnull align 8 dereferenceable(8) %12, ptr noundef %13, i1 noundef zeroext %15, ptr noundef nonnull %5)
  br i1 %19, label %24, label %20

20:                                               ; preds = %11
  %21 = load ptr, ptr @PyExc_IOError, align 8, !tbaa !30
  %22 = load ptr, ptr %5, align 8, !tbaa !41
  call void @PyErr_SetString(ptr noundef %21, ptr noundef %22)
  %23 = load ptr, ptr %5, align 8, !tbaa !41
  call void @free(ptr noundef %23) #33
  br label %27

24:                                               ; preds = %11
  %25 = load i64, ptr @_Py_TrueStruct, align 8, !tbaa !21
  %26 = add i64 %25, 1
  store i64 %26, ptr @_Py_TrueStruct, align 8, !tbaa !21
  br label %27

27:                                               ; preds = %9, %3, %24, %20
  %.0 = phi ptr [ @_Py_TrueStruct, %24 ], [ null, %20 ], [ null, %3 ], [ null, %9 ]
  call void @llvm.lifetime.end.p0(i64 1, ptr nonnull %6) #33
  call void @llvm.lifetime.end.p0(i64 8, ptr nonnull %5) #33
  call void @llvm.lifetime.end.p0(i64 8, ptr nonnull %4) #33
  ret ptr %.0
}